Archive member included to satisfy reference by file (symbol)

C:/devkitPro/libnds/lib\libnds7.a(input.o)
                              main.o (inputGetAndSend)
C:/devkitPro/libnds/lib\libnds7.a(userSettings.o)
                              main.o (readUserSettings)
C:/devkitPro/libnds/lib\libnds7.a(firmware.o)
                              C:/devkitPro/libnds/lib\libnds7.a(userSettings.o) (readFirmware)
C:/devkitPro/libnds/lib\libnds7.a(clock.o)
                              main.o (initClockIRQ)
C:/devkitPro/libnds/lib\libnds7.a(touch.o)
                              C:/devkitPro/libnds/lib\libnds7.a(input.o) (touchPenDown)
C:/devkitPro/libnds/lib\libnds7.a(system.o)
                              C:/devkitPro/libnds/lib\libnds7.a(input.o) (systemSleep)
C:/devkitPro/libnds/lib\libnds7.a(sdmmc.twl.o)
                              C:/devkitPro/libnds/lib\libnds7.a(system.o) (sdmmcMsgHandler)
C:/devkitPro/libnds/lib\libnds7.a(i2c.twl.o)
                              main.o (i2cWriteRegister)
C:/devkitPro/libnds/lib\libnds7.a(fifosystem.o)
                              C:/devkitPro/libnds/lib\libnds7.a(firmware.o) (fifoSendValue32)
C:/devkitPro/libnds/lib\libnds7.a(libnds_exit.arm.o)
                              c:/devkitpro/devkitarm/bin/../lib/gcc/arm-none-eabi/7.1.0/../../../../arm-none-eabi/lib/thumb/ds_arm7_crt0.o (__libnds_exit)
C:/devkitPro/libnds/lib\libnds7.a(interrupts.o)
                              main.o (irqSet)
C:/devkitPro/libnds/lib\libnds7.a(intrwait.o)
                              main.o (swiWaitForVBlank)
C:/devkitPro/libnds/lib\libnds7.a(swiSoftReset.o)
                              C:/devkitPro/libnds/lib\libnds7.a(fifosystem.o) (swiSoftReset)
C:/devkitPro/libnds/lib\libnds7.a(biosCalls.o)
                              C:/devkitPro/libnds/lib\libnds7.a(clock.o) (swiDelay)
C:/devkitPro/libnds/lib\libnds7.a(interruptDispatcher.o)
                              C:/devkitPro/libnds/lib\libnds7.a(interrupts.o) (IntrMain)
C:/devkitPro/libnds/lib\libnds7.a(card.twl.o)
                              C:/devkitPro/libnds/lib\libnds7.a(system.o) (twlEnableSlot1)
C:/devkitPro/libnds/lib\libnds7.a(systemShutDown.o)
                              C:/devkitPro/libnds/lib\libnds7.a(libnds_exit.arm.o) (systemShutDown)
C:/devkitPro/libnds/lib\libnds7.a(spi.o)
                              C:/devkitPro/libnds/lib\libnds7.a(system.o) (writePowerManagement)
C:/devkitPro/libnds/lib\libnds7.a(codec.twl.o)
                              C:/devkitPro/libnds/lib\libnds7.a(touch.o) (cdcTouchInit)
c:/devkitpro/devkitarm/bin/../lib/gcc/arm-none-eabi/7.1.0/thumb\libgcc.a(_thumb1_case_uqi.o)
                              C:/devkitPro/libnds/lib\libnds7.a(sdmmc.twl.o) (__gnu_thumb1_case_uqi)
c:/devkitpro/devkitarm/bin/../lib/gcc/arm-none-eabi/7.1.0/thumb\libgcc.a(_udivsi3.o)
                              C:/devkitPro/libnds/lib\libnds7.a(clock.o) (__aeabi_uidiv)
c:/devkitpro/devkitarm/bin/../lib/gcc/arm-none-eabi/7.1.0/thumb\libgcc.a(_divsi3.o)
                              C:/devkitPro/libnds/lib\libnds7.a(clock.o) (__aeabi_idiv)
c:/devkitpro/devkitarm/bin/../lib/gcc/arm-none-eabi/7.1.0/thumb\libgcc.a(_dvmd_tls.o)
                              c:/devkitpro/devkitarm/bin/../lib/gcc/arm-none-eabi/7.1.0/thumb\libgcc.a(_udivsi3.o) (__aeabi_idiv0)
c:/devkitpro/devkitarm/bin/../lib/gcc/arm-none-eabi/7.1.0/../../../../arm-none-eabi/lib/thumb\libg.a(lib_a-init.o)
                              c:/devkitpro/devkitarm/bin/../lib/gcc/arm-none-eabi/7.1.0/../../../../arm-none-eabi/lib/thumb/ds_arm7_crt0.o (__libc_init_array)
c:/devkitpro/devkitarm/bin/../lib/gcc/arm-none-eabi/7.1.0/../../../../arm-none-eabi/lib/thumb\libg.a(lib_a-memcmp.o)
                              C:/devkitPro/libnds/lib\libnds7.a(firmware.o) (memcmp)
c:/devkitpro/devkitarm/bin/../lib/gcc/arm-none-eabi/7.1.0/../../../../arm-none-eabi/lib/thumb\libg.a(lib_a-memcpy-stub.o)
                              C:/devkitPro/libnds/lib\libnds7.a(userSettings.o) (memcpy)
c:/devkitpro/devkitarm/bin/../lib/gcc/arm-none-eabi/7.1.0/../../../../arm-none-eabi/lib/thumb\libg.a(lib_a-memset.o)
                              C:/devkitPro/libnds/lib\libnds7.a(input.o) (memset)

Allocating common symbols
Common symbol       size              file

fifo_datamsg_data   0x40              C:/devkitPro/libnds/lib\libnds7.a(fifosystem.o)
fifo_buffer         0x800             C:/devkitPro/libnds/lib\libnds7.a(fifosystem.o)
fifo_value32_func   0x40              C:/devkitPro/libnds/lib\libnds7.a(fifosystem.o)
fifo_address_func   0x40              C:/devkitPro/libnds/lib\libnds7.a(fifosystem.o)
fifo_value32_data   0x40              C:/devkitPro/libnds/lib\libnds7.a(fifosystem.o)
fifo_value32_queue  0x40              C:/devkitPro/libnds/lib\libnds7.a(fifosystem.o)
fifo_data_queue     0x40              C:/devkitPro/libnds/lib\libnds7.a(fifosystem.o)
Keys                0x1               C:/devkitPro/libnds/lib\libnds7.a(input.o)
irqTable            0xc8              C:/devkitPro/libnds/lib\libnds7.a(interrupts.o)
fifo_address_data   0x40              C:/devkitPro/libnds/lib\libnds7.a(fifosystem.o)
fifo_datamsg_func   0x40              C:/devkitPro/libnds/lib\libnds7.a(fifosystem.o)
fifo_address_queue  0x40              C:/devkitPro/libnds/lib\libnds7.a(fifosystem.o)

Discarded input sections

 .text          0x00000000        0x0 c:/devkitpro/devkitarm/bin/../lib/gcc/arm-none-eabi/7.1.0/../../../../arm-none-eabi/lib/thumb/ds_arm7_crt0.o
 .data          0x00000000        0x0 c:/devkitpro/devkitarm/bin/../lib/gcc/arm-none-eabi/7.1.0/../../../../arm-none-eabi/lib/thumb/ds_arm7_crt0.o
 .bss           0x00000000        0x0 c:/devkitpro/devkitarm/bin/../lib/gcc/arm-none-eabi/7.1.0/../../../../arm-none-eabi/lib/thumb/ds_arm7_crt0.o
 .text          0x00000000        0x0 c:/devkitpro/devkitarm/bin/../lib/gcc/arm-none-eabi/7.1.0/thumb/crti.o
 .data          0x00000000        0x0 c:/devkitpro/devkitarm/bin/../lib/gcc/arm-none-eabi/7.1.0/thumb/crti.o
 .bss           0x00000000        0x0 c:/devkitpro/devkitarm/bin/../lib/gcc/arm-none-eabi/7.1.0/thumb/crti.o
 .text          0x00000000        0x0 c:/devkitpro/devkitarm/bin/../lib/gcc/arm-none-eabi/7.1.0/thumb/crtbegin.o
 .data          0x00000000        0x0 c:/devkitpro/devkitarm/bin/../lib/gcc/arm-none-eabi/7.1.0/thumb/crtbegin.o
 .bss           0x00000000        0x0 c:/devkitpro/devkitarm/bin/../lib/gcc/arm-none-eabi/7.1.0/thumb/crtbegin.o
 .data.__dso_handle
                0x00000000        0x4 c:/devkitpro/devkitarm/bin/../lib/gcc/arm-none-eabi/7.1.0/thumb/crtbegin.o
 .data          0x00000000        0x0 main.o
 .bss           0x00000000        0x0 main.o
 .text          0x00000000        0x0 C:/devkitPro/libnds/lib\libnds7.a(input.o)
 .data          0x00000000        0x0 C:/devkitPro/libnds/lib\libnds7.a(input.o)
 .bss           0x00000000        0x0 C:/devkitPro/libnds/lib\libnds7.a(input.o)
 COMMON         0x00000000        0x1 C:/devkitPro/libnds/lib\libnds7.a(input.o)
 .text          0x00000000        0x0 C:/devkitPro/libnds/lib\libnds7.a(userSettings.o)
 .data          0x00000000        0x0 C:/devkitPro/libnds/lib\libnds7.a(userSettings.o)
 .bss           0x00000000        0x0 C:/devkitPro/libnds/lib\libnds7.a(userSettings.o)
 .text          0x00000000        0x0 C:/devkitPro/libnds/lib\libnds7.a(firmware.o)
 .data          0x00000000        0x0 C:/devkitPro/libnds/lib\libnds7.a(firmware.o)
 .bss           0x00000000        0x0 C:/devkitPro/libnds/lib\libnds7.a(firmware.o)
 .text          0x00000000        0x0 C:/devkitPro/libnds/lib\libnds7.a(clock.o)
 .data          0x00000000        0x0 C:/devkitPro/libnds/lib\libnds7.a(clock.o)
 .bss           0x00000000        0x0 C:/devkitPro/libnds/lib\libnds7.a(clock.o)
 .text.integerToBCD
                0x00000000       0x2a C:/devkitPro/libnds/lib\libnds7.a(clock.o)
 .text.rtcSetTimeAndDate
                0x00000000       0x28 C:/devkitPro/libnds/lib\libnds7.a(clock.o)
 .text.rtcGetTime
                0x00000000       0x48 C:/devkitPro/libnds/lib\libnds7.a(clock.o)
 .text.rtcSetTime
                0x00000000       0x26 C:/devkitPro/libnds/lib\libnds7.a(clock.o)
 .text          0x00000000        0x0 C:/devkitPro/libnds/lib\libnds7.a(touch.o)
 .data          0x00000000        0x0 C:/devkitPro/libnds/lib\libnds7.a(touch.o)
 .bss           0x00000000        0x0 C:/devkitPro/libnds/lib\libnds7.a(touch.o)
 .text.touchRead
                0x00000000       0x68 C:/devkitPro/libnds/lib\libnds7.a(touch.o)
 .text.touchReadTemperature
                0x00000000       0x34 C:/devkitPro/libnds/lib\libnds7.a(touch.o)
 .text.touchInit
                0x00000000       0xe4 C:/devkitPro/libnds/lib\libnds7.a(touch.o)
 .text          0x00000000        0x0 C:/devkitPro/libnds/lib\libnds7.a(system.o)
 .data          0x00000000        0x0 C:/devkitPro/libnds/lib\libnds7.a(system.o)
 .bss           0x00000000        0x0 C:/devkitPro/libnds/lib\libnds7.a(system.o)
 .text.sleepEnabled
                0x00000000        0xc C:/devkitPro/libnds/lib\libnds7.a(system.o)
 .text          0x00000000        0x0 C:/devkitPro/libnds/lib\libnds7.a(sdmmc.twl.o)
 .data          0x00000000        0x0 C:/devkitPro/libnds/lib\libnds7.a(sdmmc.twl.o)
 .bss           0x00000000        0x0 C:/devkitPro/libnds/lib\libnds7.a(sdmmc.twl.o)
 .text.geterror
                0x00000000        0x8 C:/devkitPro/libnds/lib\libnds7.a(sdmmc.twl.o)
 .text.sdmmc_cardinserted
                0x00000000        0x4 C:/devkitPro/libnds/lib\libnds7.a(sdmmc.twl.o)
 .text.sdmmc_get_cid
                0x00000000       0x6c C:/devkitPro/libnds/lib\libnds7.a(sdmmc.twl.o)
 .text.sdmmc_sdcard_readsectors
                0x00000000       0x18 C:/devkitPro/libnds/lib\libnds7.a(sdmmc.twl.o)
 .text.sdmmc_sdcard_writesectors
                0x00000000       0x18 C:/devkitPro/libnds/lib\libnds7.a(sdmmc.twl.o)
 .text.sdmmc_nand_readsectors
                0x00000000       0x18 C:/devkitPro/libnds/lib\libnds7.a(sdmmc.twl.o)
 .text.sdmmc_nand_writesectors
                0x00000000       0x18 C:/devkitPro/libnds/lib\libnds7.a(sdmmc.twl.o)
 .text          0x00000000        0x0 C:/devkitPro/libnds/lib\libnds7.a(i2c.twl.o)
 .data          0x00000000        0x0 C:/devkitPro/libnds/lib\libnds7.a(i2c.twl.o)
 .bss           0x00000000        0x0 C:/devkitPro/libnds/lib\libnds7.a(i2c.twl.o)
 .text.i2cGetData
                0x00000000       0x14 C:/devkitPro/libnds/lib\libnds7.a(i2c.twl.o)
 .text          0x00000000        0x0 C:/devkitPro/libnds/lib\libnds7.a(fifosystem.o)
 .data          0x00000000        0x0 C:/devkitPro/libnds/lib\libnds7.a(fifosystem.o)
 .bss           0x00000000        0x0 C:/devkitPro/libnds/lib\libnds7.a(fifosystem.o)
 .text.fifoSendAddress
                0x00000000       0x2e C:/devkitPro/libnds/lib\libnds7.a(fifosystem.o)
 .text.fifoGetAddress
                0x00000000       0x4c C:/devkitPro/libnds/lib\libnds7.a(fifosystem.o)
 .text.fifoCheckAddress
                0x00000000       0x20 C:/devkitPro/libnds/lib\libnds7.a(fifosystem.o)
 .text.fifoSetAddressHandler
                0x00000000       0x5c C:/devkitPro/libnds/lib\libnds7.a(fifosystem.o)
 .text.fifoCheckDatamsgLength
                0x00000000       0x34 C:/devkitPro/libnds/lib\libnds7.a(fifosystem.o)
 .text          0x00000000        0x0 C:/devkitPro/libnds/lib\libnds7.a(libnds_exit.arm.o)
 .data          0x00000000        0x0 C:/devkitPro/libnds/lib\libnds7.a(libnds_exit.arm.o)
 .bss           0x00000000        0x0 C:/devkitPro/libnds/lib\libnds7.a(libnds_exit.arm.o)
 .text          0x00000000        0x0 C:/devkitPro/libnds/lib\libnds7.a(interrupts.o)
 .data          0x00000000        0x0 C:/devkitPro/libnds/lib\libnds7.a(interrupts.o)
 .bss           0x00000000        0x0 C:/devkitPro/libnds/lib\libnds7.a(interrupts.o)
 .text.setPowerButtonCB
                0x00000000       0x1c C:/devkitPro/libnds/lib\libnds7.a(interrupts.o)
 .text.irqClear
                0x00000000       0x28 C:/devkitPro/libnds/lib\libnds7.a(interrupts.o)
 .text          0x00000000        0x0 C:/devkitPro/libnds/lib\libnds7.a(intrwait.o)
 .data          0x00000000        0x0 C:/devkitPro/libnds/lib\libnds7.a(intrwait.o)
 .bss           0x00000000        0x0 C:/devkitPro/libnds/lib\libnds7.a(intrwait.o)
 .text          0x00000000        0x0 C:/devkitPro/libnds/lib\libnds7.a(swiSoftReset.o)
 .data          0x00000000        0x0 C:/devkitPro/libnds/lib\libnds7.a(swiSoftReset.o)
 .bss           0x00000000        0x0 C:/devkitPro/libnds/lib\libnds7.a(swiSoftReset.o)
 .text          0x00000000        0x0 C:/devkitPro/libnds/lib\libnds7.a(biosCalls.o)
 .data          0x00000000        0x0 C:/devkitPro/libnds/lib\libnds7.a(biosCalls.o)
 .bss           0x00000000        0x0 C:/devkitPro/libnds/lib\libnds7.a(biosCalls.o)
 .text.swiDivide
                0x00000000        0x4 C:/devkitPro/libnds/lib\libnds7.a(biosCalls.o)
 .text.swiRemainder
                0x00000000        0x8 C:/devkitPro/libnds/lib\libnds7.a(biosCalls.o)
 .text.swiDivMod
                0x00000000        0xc C:/devkitPro/libnds/lib\libnds7.a(biosCalls.o)
 .text.swiCopy  0x00000000        0x4 C:/devkitPro/libnds/lib\libnds7.a(biosCalls.o)
 .text.swiFastCopy
                0x00000000        0x4 C:/devkitPro/libnds/lib\libnds7.a(biosCalls.o)
 .text.swiSqrt  0x00000000        0x4 C:/devkitPro/libnds/lib\libnds7.a(biosCalls.o)
 .text.swiIsDebugger
                0x00000000        0x4 C:/devkitPro/libnds/lib\libnds7.a(biosCalls.o)
 .text.swiUnpackBits
                0x00000000        0x4 C:/devkitPro/libnds/lib\libnds7.a(biosCalls.o)
 .text.swiDecompressLZSSWram
                0x00000000        0x4 C:/devkitPro/libnds/lib\libnds7.a(biosCalls.o)
 .text.swiDecompressLZSSVramNTR
                0x00000000        0x4 C:/devkitPro/libnds/lib\libnds7.a(biosCalls.o)
 .text.swiDecompressLZSSVramTWL
                0x00000000        0x4 C:/devkitPro/libnds/lib\libnds7.a(biosCalls.o)
 .text.swiDecompressHuffman
                0x00000000        0x4 C:/devkitPro/libnds/lib\libnds7.a(biosCalls.o)
 .text.swiDecompressRLEWram
                0x00000000        0x4 C:/devkitPro/libnds/lib\libnds7.a(biosCalls.o)
 .text.swiDecompressRLEVram
                0x00000000        0x4 C:/devkitPro/libnds/lib\libnds7.a(biosCalls.o)
 .text.swiHalt  0x00000000        0x4 C:/devkitPro/libnds/lib\libnds7.a(biosCalls.o)
 .text.swiGetSineTable
                0x00000000        0x4 C:/devkitPro/libnds/lib\libnds7.a(biosCalls.o)
 .text.swiGetPitchTable
                0x00000000        0x4 C:/devkitPro/libnds/lib\libnds7.a(biosCalls.o)
 .text.swiGetVolumeTable
                0x00000000        0x4 C:/devkitPro/libnds/lib\libnds7.a(biosCalls.o)
 .text.swiSwitchToGBAMode
                0x00000000        0x4 C:/devkitPro/libnds/lib\libnds7.a(biosCalls.o)
 .text.swiSetHaltCR
                0x00000000        0x8 C:/devkitPro/libnds/lib\libnds7.a(biosCalls.o)
 .data          0x00000000        0x0 C:/devkitPro/libnds/lib\libnds7.a(interruptDispatcher.o)
 .bss           0x00000000        0x0 C:/devkitPro/libnds/lib\libnds7.a(interruptDispatcher.o)
 .text          0x00000000        0x0 C:/devkitPro/libnds/lib\libnds7.a(card.twl.o)
 .data          0x00000000        0x0 C:/devkitPro/libnds/lib\libnds7.a(card.twl.o)
 .bss           0x00000000        0x0 C:/devkitPro/libnds/lib\libnds7.a(card.twl.o)
 .text          0x00000000        0x0 C:/devkitPro/libnds/lib\libnds7.a(systemShutDown.o)
 .data          0x00000000        0x0 C:/devkitPro/libnds/lib\libnds7.a(systemShutDown.o)
 .bss           0x00000000        0x0 C:/devkitPro/libnds/lib\libnds7.a(systemShutDown.o)
 .text          0x00000000        0x0 C:/devkitPro/libnds/lib\libnds7.a(spi.o)
 .data          0x00000000        0x0 C:/devkitPro/libnds/lib\libnds7.a(spi.o)
 .bss           0x00000000        0x0 C:/devkitPro/libnds/lib\libnds7.a(spi.o)
 .text          0x00000000        0x0 C:/devkitPro/libnds/lib\libnds7.a(codec.twl.o)
 .data          0x00000000        0x0 C:/devkitPro/libnds/lib\libnds7.a(codec.twl.o)
 .bss           0x00000000        0x0 C:/devkitPro/libnds/lib\libnds7.a(codec.twl.o)
 .text.cdcWriteReg
                0x00000000       0x18 C:/devkitPro/libnds/lib\libnds7.a(codec.twl.o)
 .text.cdcWriteRegMask
                0x00000000       0x2a C:/devkitPro/libnds/lib\libnds7.a(codec.twl.o)
 .text.cdcWriteRegArray
                0x00000000       0x64 C:/devkitPro/libnds/lib\libnds7.a(codec.twl.o)
 .text.cdcTouchInit
                0x00000000       0x88 C:/devkitPro/libnds/lib\libnds7.a(codec.twl.o)
 .data          0x00000000        0x0 c:/devkitpro/devkitarm/bin/../lib/gcc/arm-none-eabi/7.1.0/thumb\libgcc.a(_thumb1_case_uqi.o)
 .bss           0x00000000        0x0 c:/devkitpro/devkitarm/bin/../lib/gcc/arm-none-eabi/7.1.0/thumb\libgcc.a(_thumb1_case_uqi.o)
 .data          0x00000000        0x0 c:/devkitpro/devkitarm/bin/../lib/gcc/arm-none-eabi/7.1.0/thumb\libgcc.a(_udivsi3.o)
 .bss           0x00000000        0x0 c:/devkitpro/devkitarm/bin/../lib/gcc/arm-none-eabi/7.1.0/thumb\libgcc.a(_udivsi3.o)
 .data          0x00000000        0x0 c:/devkitpro/devkitarm/bin/../lib/gcc/arm-none-eabi/7.1.0/thumb\libgcc.a(_divsi3.o)
 .bss           0x00000000        0x0 c:/devkitpro/devkitarm/bin/../lib/gcc/arm-none-eabi/7.1.0/thumb\libgcc.a(_divsi3.o)
 .data          0x00000000        0x0 c:/devkitpro/devkitarm/bin/../lib/gcc/arm-none-eabi/7.1.0/thumb\libgcc.a(_dvmd_tls.o)
 .bss           0x00000000        0x0 c:/devkitpro/devkitarm/bin/../lib/gcc/arm-none-eabi/7.1.0/thumb\libgcc.a(_dvmd_tls.o)
 .text          0x00000000        0x0 c:/devkitpro/devkitarm/bin/../lib/gcc/arm-none-eabi/7.1.0/../../../../arm-none-eabi/lib/thumb\libg.a(lib_a-init.o)
 .data          0x00000000        0x0 c:/devkitpro/devkitarm/bin/../lib/gcc/arm-none-eabi/7.1.0/../../../../arm-none-eabi/lib/thumb\libg.a(lib_a-init.o)
 .bss           0x00000000        0x0 c:/devkitpro/devkitarm/bin/../lib/gcc/arm-none-eabi/7.1.0/../../../../arm-none-eabi/lib/thumb\libg.a(lib_a-init.o)
 .text          0x00000000        0x0 c:/devkitpro/devkitarm/bin/../lib/gcc/arm-none-eabi/7.1.0/../../../../arm-none-eabi/lib/thumb\libg.a(lib_a-memcmp.o)
 .data          0x00000000        0x0 c:/devkitpro/devkitarm/bin/../lib/gcc/arm-none-eabi/7.1.0/../../../../arm-none-eabi/lib/thumb\libg.a(lib_a-memcmp.o)
 .bss           0x00000000        0x0 c:/devkitpro/devkitarm/bin/../lib/gcc/arm-none-eabi/7.1.0/../../../../arm-none-eabi/lib/thumb\libg.a(lib_a-memcmp.o)
 .text          0x00000000        0x0 c:/devkitpro/devkitarm/bin/../lib/gcc/arm-none-eabi/7.1.0/../../../../arm-none-eabi/lib/thumb\libg.a(lib_a-memcpy-stub.o)
 .data          0x00000000        0x0 c:/devkitpro/devkitarm/bin/../lib/gcc/arm-none-eabi/7.1.0/../../../../arm-none-eabi/lib/thumb\libg.a(lib_a-memcpy-stub.o)
 .bss           0x00000000        0x0 c:/devkitpro/devkitarm/bin/../lib/gcc/arm-none-eabi/7.1.0/../../../../arm-none-eabi/lib/thumb\libg.a(lib_a-memcpy-stub.o)
 .text          0x00000000        0x0 c:/devkitpro/devkitarm/bin/../lib/gcc/arm-none-eabi/7.1.0/../../../../arm-none-eabi/lib/thumb\libg.a(lib_a-memset.o)
 .data          0x00000000        0x0 c:/devkitpro/devkitarm/bin/../lib/gcc/arm-none-eabi/7.1.0/../../../../arm-none-eabi/lib/thumb\libg.a(lib_a-memset.o)
 .bss           0x00000000        0x0 c:/devkitpro/devkitarm/bin/../lib/gcc/arm-none-eabi/7.1.0/../../../../arm-none-eabi/lib/thumb\libg.a(lib_a-memset.o)
 .text          0x00000000        0x0 c:/devkitpro/devkitarm/bin/../lib/gcc/arm-none-eabi/7.1.0/thumb/crtend.o
 .data          0x00000000        0x0 c:/devkitpro/devkitarm/bin/../lib/gcc/arm-none-eabi/7.1.0/thumb/crtend.o
 .bss           0x00000000        0x0 c:/devkitpro/devkitarm/bin/../lib/gcc/arm-none-eabi/7.1.0/thumb/crtend.o
 .text          0x00000000        0x0 c:/devkitpro/devkitarm/bin/../lib/gcc/arm-none-eabi/7.1.0/thumb/crtn.o
 .data          0x00000000        0x0 c:/devkitpro/devkitarm/bin/../lib/gcc/arm-none-eabi/7.1.0/thumb/crtn.o
 .bss           0x00000000        0x0 c:/devkitpro/devkitarm/bin/../lib/gcc/arm-none-eabi/7.1.0/thumb/crtn.o

Memory Configuration

Name             Origin             Length             Attributes
ewram            0x02380000         0x00b80000
rom              0x08000000         0x02000000
iwram            0x037f8000         0x00018000
twl_ewram        0x02e80000         0x00070000
twl_iwram        0x03000000         0x00040000
*default*        0x00000000         0xffffffff

Linker script and memory map

                0x037f8000                __iwram_start = ORIGIN (iwram)
                0x03810000                __iwram_top = (ORIGIN (iwram) + LENGTH (iwram))
                0x0380ff00                __sp_irq = (__iwram_top - 0x100)
                0x0380fe00                __sp_svc = (__sp_irq - 0x100)
                0x0380fd00                __sp_usr = (__sp_svc - 0x100)
                0x03fffff8                __irq_flags = 0x3fffff8
                0x03ffffc0                __irq_flagsaux = 0x3ffffc0
                0x03fffffc                __irq_vector = 0x3fffffc

.twl            0x03000000      0xe91 load address 0x02e80000
                0x02e80000                __arm7i_lma__ = LOADADDR (.twl)
                0x03000000                __arm7i_start__ = .
 *(.twl)
 .twl           0x03000000       0xf0 C:/devkitPro/libnds/lib\libnds7.a(interrupts.o)
                0x03000000                i2cIRQHandler
                0x0300005a                irqSetAUX
                0x03000080                irqClearAUX
                0x030000a8                irqDisableAUX
                0x030000cc                irqEnableAUX
 *.twl*(.text .stub .text.* .gnu.linkonce.t.*)
 .text.setckl   0x030000f0       0x34 C:/devkitPro/libnds/lib\libnds7.a(sdmmc.twl.o)
 .text.calcSDSize
                0x03000124       0x60 C:/devkitPro/libnds/lib\libnds7.a(sdmmc.twl.o)
 .text.setTarget
                0x03000184       0x44 C:/devkitPro/libnds/lib\libnds7.a(sdmmc.twl.o)
                0x03000184                setTarget
 .text.sdmmc_send_command
                0x030001c8      0x264 C:/devkitPro/libnds/lib\libnds7.a(sdmmc.twl.o)
                0x030001c8                sdmmc_send_command
 .text.sdmmc_controller_init
                0x0300042c      0x13c C:/devkitPro/libnds/lib\libnds7.a(sdmmc.twl.o)
                0x0300042c                sdmmc_controller_init
 .text.sdmmc_sdcard_init
                0x03000568      0x17c C:/devkitPro/libnds/lib\libnds7.a(sdmmc.twl.o)
                0x03000568                sdmmc_sdcard_init
 .text.sdmmc_nand_init
                0x030006e4      0x128 C:/devkitPro/libnds/lib\libnds7.a(sdmmc.twl.o)
                0x030006e4                sdmmc_nand_init
 .text.sdmmc_readsectors
                0x0300080c       0x70 C:/devkitPro/libnds/lib\libnds7.a(sdmmc.twl.o)
                0x0300080c                sdmmc_readsectors
 .text.sdmmc_writesectors
                0x0300087c       0x70 C:/devkitPro/libnds/lib\libnds7.a(sdmmc.twl.o)
                0x0300087c                sdmmc_writesectors
 .text.sdmmcMsgHandler
                0x030008ec       0x6c C:/devkitPro/libnds/lib\libnds7.a(sdmmc.twl.o)
                0x030008ec                sdmmcMsgHandler
 .text.sdmmc_nand_startup
                0x03000958       0x12 C:/devkitPro/libnds/lib\libnds7.a(sdmmc.twl.o)
                0x03000958                sdmmc_nand_startup
 .text.sdmmc_sd_startup
                0x0300096a       0x12 C:/devkitPro/libnds/lib\libnds7.a(sdmmc.twl.o)
                0x0300096a                sdmmc_sd_startup
 .text.sdmmcValueHandler
                0x0300097c       0x68 C:/devkitPro/libnds/lib\libnds7.a(sdmmc.twl.o)
                0x0300097c                sdmmcValueHandler
 .text.i2cWaitBusy
                0x030009e4       0x10 C:/devkitPro/libnds/lib\libnds7.a(i2c.twl.o)
 .text.i2cDelay
                0x030009f4       0x18 C:/devkitPro/libnds/lib\libnds7.a(i2c.twl.o)
                0x030009f4                i2cDelay
 .text.i2cStop  0x03000a0c       0x40 C:/devkitPro/libnds/lib\libnds7.a(i2c.twl.o)
                0x03000a0c                i2cStop
 .text.i2cGetResult
                0x03000a4c       0x18 C:/devkitPro/libnds/lib\libnds7.a(i2c.twl.o)
                0x03000a4c                i2cGetResult
 .text.i2cSetDelay
                0x03000a64       0x14 C:/devkitPro/libnds/lib\libnds7.a(i2c.twl.o)
                0x03000a64                i2cSetDelay
 .text.i2cSelectDevice
                0x03000a78       0x24 C:/devkitPro/libnds/lib\libnds7.a(i2c.twl.o)
                0x03000a78                i2cSelectDevice
 .text.i2cSelectRegister
                0x03000a9c       0x24 C:/devkitPro/libnds/lib\libnds7.a(i2c.twl.o)
                0x03000a9c                i2cSelectRegister
 .text.i2cWriteRegister
                0x03000ac0       0x5c C:/devkitPro/libnds/lib\libnds7.a(i2c.twl.o)
                0x03000ac0                i2cWriteRegister
 .text.i2cReadRegister
                0x03000b1c       0x64 C:/devkitPro/libnds/lib\libnds7.a(i2c.twl.o)
                0x03000b1c                i2cReadRegister
 .text.twlEnableSlot1
                0x03000b80       0x58 C:/devkitPro/libnds/lib\libnds7.a(card.twl.o)
                0x03000b80                twlEnableSlot1
 .text.twlDisableSlot1
                0x03000bd8       0x4c C:/devkitPro/libnds/lib\libnds7.a(card.twl.o)
                0x03000bd8                twlDisableSlot1
 .text.readTSC  0x03000c24       0x50 C:/devkitPro/libnds/lib\libnds7.a(codec.twl.o)
 .text.writeTSC
                0x03000c74       0x3c C:/devkitPro/libnds/lib\libnds7.a(codec.twl.o)
 .text.bankSwitchTSC
                0x03000cb0       0x28 C:/devkitPro/libnds/lib\libnds7.a(codec.twl.o)
 .text.cdcReadReg
                0x03000cd8       0x14 C:/devkitPro/libnds/lib\libnds7.a(codec.twl.o)
                0x03000cd8                cdcReadReg
 .text.cdcReadRegArray
                0x03000cec       0x74 C:/devkitPro/libnds/lib\libnds7.a(codec.twl.o)
                0x03000cec                cdcReadRegArray
 .text.cdcTouchPenDown
                0x03000d60       0x28 C:/devkitPro/libnds/lib\libnds7.a(codec.twl.o)
                0x03000d60                cdcTouchPenDown
 .text.cdcTouchRead
                0x03000d88       0x74 C:/devkitPro/libnds/lib\libnds7.a(codec.twl.o)
                0x03000d88                cdcTouchRead
 *fill*         0x03000dfc        0x4 
 .text.cdcTouchRead.__stub
                0x03000e00       0x8c linker stubs
 *.twl*(.rodata)
 *.twl*(.roda)
 *.twl*(.rodata.*)
 *.twl*(.data)
 *.twl*(.data.*)
 .data.curBank.4630
                0x03000e90        0x1 C:/devkitPro/libnds/lib\libnds7.a(codec.twl.o)
 *.twl*(.gnu.linkonce.d*)
                0x03000e91                __arm7i_end__ = .

.twl_bss        0x03000e94      0x14c
                0x03000e94                __twl_bss_start__ = .
 *(.twl_bss)
 .twl_bss       0x03000e94       0xcc C:/devkitPro/libnds/lib\libnds7.a(interrupts.o)
                0x03000e98                irqTableAUX
 *.twl.*(.dynbss)
 *.twl.*(.gnu.linkonce.b*)
 *.twl.*(.bss*)
 .bss.deviceNAND
                0x03000f60       0x3c C:/devkitPro/libnds/lib\libnds7.a(sdmmc.twl.o)
 .bss.deviceSD  0x03000f9c       0x3c C:/devkitPro/libnds/lib\libnds7.a(sdmmc.twl.o)
 .bss.sdmmc_controller_initialised
                0x03000fd8        0x1 C:/devkitPro/libnds/lib\libnds7.a(sdmmc.twl.o)
 *fill*         0x03000fd9        0x3 
 .bss.i2cCurrentDelay
                0x03000fdc        0x4 C:/devkitPro/libnds/lib\libnds7.a(i2c.twl.o)
 *.twl.*(COMMON)
                0x03000fe0                __twl_bss_end__ = .

.crt0           0x02380000      0x1c8
 *(.crt0)
 .crt0          0x02380000      0x1c8 c:/devkitpro/devkitarm/bin/../lib/gcc/arm-none-eabi/7.1.0/../../../../arm-none-eabi/lib/thumb/ds_arm7_crt0.o
                0x02380000                _start
                0x023801c8                . = ALIGN (0x4)

.text           0x037f8000     0x20b0 load address 0x023801c8
                0x023801c8                __arm7_lma__ = LOADADDR (.text)
                0x037f8000                __arm7_start__ = .
 *(SORT(.init))
 .init          0x037f8000        0x4 c:/devkitpro/devkitarm/bin/../lib/gcc/arm-none-eabi/7.1.0/thumb/crti.o
                0x037f8000                _init
 .init          0x037f8004        0x8 c:/devkitpro/devkitarm/bin/../lib/gcc/arm-none-eabi/7.1.0/thumb/crtn.o
 *(.plt)
 *(.text .stub .text.* .gnu.linkonce.t.*)
 .text.deregister_tm_clones
                0x037f800c       0x2c c:/devkitpro/devkitarm/bin/../lib/gcc/arm-none-eabi/7.1.0/thumb/crtbegin.o
 .text.register_tm_clones
                0x037f8038       0x34 c:/devkitpro/devkitarm/bin/../lib/gcc/arm-none-eabi/7.1.0/thumb/crtbegin.o
 .text.__do_global_dtors_aux
                0x037f806c       0x30 c:/devkitpro/devkitarm/bin/../lib/gcc/arm-none-eabi/7.1.0/thumb/crtbegin.o
 .text.frame_dummy
                0x037f809c       0x28 c:/devkitpro/devkitarm/bin/../lib/gcc/arm-none-eabi/7.1.0/thumb/crtbegin.o
 .text          0x037f80c4        0xc main.o
                0x037f80c4                VcountHandler
 .text.startup  0x037f80d0       0x64 main.o
                0x037f80d0                main
 .text.inputGetAndSend
                0x037f8134       0xb8 C:/devkitPro/libnds/lib\libnds7.a(input.o)
                0x037f8134                inputGetAndSend
 .text.readUserSettings
                0x037f81ec       0xd4 C:/devkitPro/libnds/lib\libnds7.a(userSettings.o)
                0x037f81ec                readUserSettings
 .text.SerialWaitBusy
                0x037f82c0       0x10 C:/devkitPro/libnds/lib\libnds7.a(firmware.o)
 .text.readwriteSPI
                0x037f82d0       0x1c C:/devkitPro/libnds/lib\libnds7.a(firmware.o)
 .text.readFirmware
                0x037f82ec       0x74 C:/devkitPro/libnds/lib\libnds7.a(firmware.o)
                0x037f82ec                readFirmware
 .text.writeFirmware
                0x037f8360      0x13c C:/devkitPro/libnds/lib\libnds7.a(firmware.o)
                0x037f8360                writeFirmware
 .text.firmwareMsgHandler
                0x037f849c       0x48 C:/devkitPro/libnds/lib\libnds7.a(firmware.o)
                0x037f849c                firmwareMsgHandler
 .text.syncRTC  0x037f84e4       0x10 C:/devkitPro/libnds/lib\libnds7.a(clock.o)
                0x037f84e4                syncRTC
 .text.BCDToInteger
                0x037f84f4       0x24 C:/devkitPro/libnds/lib\libnds7.a(clock.o)
                0x037f84f4                BCDToInteger
 .text.rtcTransaction
                0x037f8518       0xf8 C:/devkitPro/libnds/lib\libnds7.a(clock.o)
                0x037f8518                rtcTransaction
 .text.rtcReset
                0x037f8610       0x3e C:/devkitPro/libnds/lib\libnds7.a(clock.o)
                0x037f8610                rtcReset
 .text.rtcGetTimeAndDate
                0x037f864e       0x48 C:/devkitPro/libnds/lib\libnds7.a(clock.o)
                0x037f864e                rtcGetTimeAndDate
 *fill*         0x037f8696        0x2 
 .text.resyncClock
                0x037f8698       0xd0 C:/devkitPro/libnds/lib\libnds7.a(clock.o)
                0x037f8698                resyncClock
 .text.initClockIRQ
                0x037f8768       0x78 C:/devkitPro/libnds/lib\libnds7.a(clock.o)
                0x037f8768                initClockIRQ
 .text.SerialWaitBusy
                0x037f87e0       0x10 C:/devkitPro/libnds/lib\libnds7.a(touch.o)
 .text.cdcIsAvailable
                0x037f87f0       0x24 C:/devkitPro/libnds/lib\libnds7.a(touch.o)
 .text.CheckStylus
                0x037f8814       0x88 C:/devkitPro/libnds/lib\libnds7.a(touch.o)
 .text.readTouchValue
                0x037f889c      0x178 C:/devkitPro/libnds/lib\libnds7.a(touch.o)
                0x037f889c                readTouchValue
 .text.UpdateRange
                0x037f8a14       0x6c C:/devkitPro/libnds/lib\libnds7.a(touch.o)
                0x037f8a14                UpdateRange
 .text.touchPenDown
                0x037f8a80       0x34 C:/devkitPro/libnds/lib\libnds7.a(touch.o)
                0x037f8a80                touchPenDown
 .text.touchReadXY
                0x037f8ab4      0x19c C:/devkitPro/libnds/lib\libnds7.a(touch.o)
                0x037f8ab4                touchReadXY
 .text.enableSlot1
                0x037f8c50       0x18 C:/devkitPro/libnds/lib\libnds7.a(system.o)
                0x037f8c50                enableSlot1
 .text.disableSlot1
                0x037f8c68       0x18 C:/devkitPro/libnds/lib\libnds7.a(system.o)
                0x037f8c68                disableSlot1
 .text.powerValueHandler
                0x037f8c80      0x154 C:/devkitPro/libnds/lib\libnds7.a(system.o)
                0x037f8c80                powerValueHandler
 .text.systemSleep
                0x037f8dd4       0x20 C:/devkitPro/libnds/lib\libnds7.a(system.o)
                0x037f8dd4                systemSleep
 .text.installSystemFIFO
                0x037f8df4       0x4c C:/devkitPro/libnds/lib\libnds7.a(system.o)
                0x037f8df4                installSystemFIFO
 .text.fifo_freeBlock
                0x037f8e40       0x30 C:/devkitPro/libnds/lib\libnds7.a(fifosystem.o)
 .text.fifo_allocBlock.part.0
                0x037f8e70       0x34 C:/devkitPro/libnds/lib\libnds7.a(fifosystem.o)
 .text.fifo_queueBlock
                0x037f8ea4       0x44 C:/devkitPro/libnds/lib\libnds7.a(fifosystem.o)
 .text.fifoInternalSendInterrupt
                0x037f8ee8       0x64 C:/devkitPro/libnds/lib\libnds7.a(fifosystem.o)
 .text.fifo_waitBlock
                0x037f8f4c       0x4c C:/devkitPro/libnds/lib\libnds7.a(fifosystem.o)
 .text.fifoInternalSend
                0x037f8f98       0xe0 C:/devkitPro/libnds/lib\libnds7.a(fifosystem.o)
 .text.fifoSendValue32
                0x037f9078       0x38 C:/devkitPro/libnds/lib\libnds7.a(fifosystem.o)
                0x037f9078                fifoSendValue32
 .text.fifoSendDatamsg
                0x037f90b0       0x6c C:/devkitPro/libnds/lib\libnds7.a(fifosystem.o)
                0x037f90b0                fifoSendDatamsg
 .text.fifoGetValue32
                0x037f911c       0x4c C:/devkitPro/libnds/lib\libnds7.a(fifosystem.o)
                0x037f911c                fifoGetValue32
 .text.fifoGetDatamsg
                0x037f9168       0xc0 C:/devkitPro/libnds/lib\libnds7.a(fifosystem.o)
                0x037f9168                fifoGetDatamsg
 .text.fifoInternalRecvInterrupt
                0x037f9228      0x2d4 C:/devkitPro/libnds/lib\libnds7.a(fifosystem.o)
 .text.fifoCheckDatamsg
                0x037f94fc       0x20 C:/devkitPro/libnds/lib\libnds7.a(fifosystem.o)
                0x037f94fc                fifoCheckDatamsg
 .text.fifoSetDatamsgHandler
                0x037f951c       0x8c C:/devkitPro/libnds/lib\libnds7.a(fifosystem.o)
                0x037f951c                fifoSetDatamsgHandler
 .text.fifoCheckValue32
                0x037f95a8       0x20 C:/devkitPro/libnds/lib\libnds7.a(fifosystem.o)
                0x037f95a8                fifoCheckValue32
 .text.fifoSetValue32Handler
                0x037f95c8       0x5c C:/devkitPro/libnds/lib\libnds7.a(fifosystem.o)
                0x037f95c8                fifoSetValue32Handler
 .text.fifoInit
                0x037f9624       0xf8 C:/devkitPro/libnds/lib\libnds7.a(fifosystem.o)
                0x037f9624                fifoInit
 .text.systemErrorExit
                0x037f971c        0x4 C:/devkitPro/libnds/lib\libnds7.a(libnds_exit.arm.o)
                0x037f971c                systemErrorExit
 .text.__libnds_exit
                0x037f9720       0x54 C:/devkitPro/libnds/lib\libnds7.a(libnds_exit.arm.o)
                0x037f9720                __libnds_exit
 .text.irqDummy
                0x037f9774        0x2 C:/devkitPro/libnds/lib\libnds7.a(interrupts.o)
                0x037f9774                irqDummy
 *fill*         0x037f9776        0x2 
 .text.__irqClear
                0x037f9778       0x1c C:/devkitPro/libnds/lib\libnds7.a(interrupts.o)
 .text.__irqSet.part.0
                0x037f9794       0x22 C:/devkitPro/libnds/lib\libnds7.a(interrupts.o)
 *fill*         0x037f97b6        0x2 
 .text.irqSet   0x037f97b8       0x5c C:/devkitPro/libnds/lib\libnds7.a(interrupts.o)
                0x037f97b8                irqSet
 .text.irqInitHandler
                0x037f9814       0x44 C:/devkitPro/libnds/lib\libnds7.a(interrupts.o)
                0x037f9814                irqInitHandler
 .text.irqEnable
                0x037f9858       0x64 C:/devkitPro/libnds/lib\libnds7.a(interrupts.o)
                0x037f9858                irqEnable
 .text.irqDisable
                0x037f98bc       0x68 C:/devkitPro/libnds/lib\libnds7.a(interrupts.o)
                0x037f98bc                irqDisable
 .text.irqInit  0x037f9924       0x54 C:/devkitPro/libnds/lib\libnds7.a(interrupts.o)
                0x037f9924                irqInit
 .text.swiWaitForVBlank
                0x037f9978       0x10 C:/devkitPro/libnds/lib\libnds7.a(intrwait.o)
                0x037f9978                swiWaitForVBlank
 .text.swiIntrWait
                0x037f9988       0x44 C:/devkitPro/libnds/lib\libnds7.a(intrwait.o)
                0x037f9988                swiIntrWait
 .text.swiSoftReset
                0x037f99cc       0x10 C:/devkitPro/libnds/lib\libnds7.a(swiSoftReset.o)
                0x037f99cc                swiSoftReset
 .text.swiDelay
                0x037f99dc        0x4 C:/devkitPro/libnds/lib\libnds7.a(biosCalls.o)
                0x037f99dc                swiDelay
 .text.swiSleep
                0x037f99e0        0x4 C:/devkitPro/libnds/lib\libnds7.a(biosCalls.o)
                0x037f99e0                swiSleep
 .text.swiChangeSoundBias
                0x037f99e4        0x4 C:/devkitPro/libnds/lib\libnds7.a(biosCalls.o)
                0x037f99e4                swiChangeSoundBias
 .text.swiCRC16
                0x037f99e8        0x4 C:/devkitPro/libnds/lib\libnds7.a(biosCalls.o)
                0x037f99e8                swiCRC16
 .text          0x037f99ec       0xec C:/devkitPro/libnds/lib\libnds7.a(interruptDispatcher.o)
                0x037f99ec                IntrMain
 .text.systemShutDown
                0x037f9ad8       0x30 C:/devkitPro/libnds/lib\libnds7.a(systemShutDown.o)
                0x037f9ad8                systemShutDown
 .text.writePowerManagement
                0x037f9b08       0x60 C:/devkitPro/libnds/lib\libnds7.a(spi.o)
                0x037f9b08                writePowerManagement
 .text.ledBlink
                0x037f9b68       0x22 C:/devkitPro/libnds/lib\libnds7.a(spi.o)
                0x037f9b68                ledBlink
 *fill*         0x037f9b8a        0x2 
 .text          0x037f9b8c       0x14 c:/devkitpro/devkitarm/bin/../lib/gcc/arm-none-eabi/7.1.0/thumb\libgcc.a(_thumb1_case_uqi.o)
                0x037f9b8c                __gnu_thumb1_case_uqi
 .text          0x037f9ba0      0x11c c:/devkitpro/devkitarm/bin/../lib/gcc/arm-none-eabi/7.1.0/thumb\libgcc.a(_udivsi3.o)
                0x037f9ba0                __aeabi_uidiv
                0x037f9ba0                __udivsi3
                0x037f9c9c                __aeabi_uidivmod
 .text          0x037f9cbc      0x150 c:/devkitpro/devkitarm/bin/../lib/gcc/arm-none-eabi/7.1.0/thumb\libgcc.a(_divsi3.o)
                0x037f9cbc                __divsi3
                0x037f9cbc                __aeabi_idiv
                0x037f9dec                __aeabi_idivmod
 .text          0x037f9e0c        0x4 c:/devkitpro/devkitarm/bin/../lib/gcc/arm-none-eabi/7.1.0/thumb\libgcc.a(_dvmd_tls.o)
                0x037f9e0c                __aeabi_idiv0
                0x037f9e0c                __aeabi_ldiv0
 .text.__libc_init_array
                0x037f9e10       0x54 c:/devkitpro/devkitarm/bin/../lib/gcc/arm-none-eabi/7.1.0/../../../../arm-none-eabi/lib/thumb\libg.a(lib_a-init.o)
                0x037f9e10                __libc_init_array
 .text.memcmp   0x037f9e64       0x50 c:/devkitpro/devkitarm/bin/../lib/gcc/arm-none-eabi/7.1.0/../../../../arm-none-eabi/lib/thumb\libg.a(lib_a-memcmp.o)
                0x037f9e64                memcmp
 .text.memcpy   0x037f9eb4       0x8c c:/devkitpro/devkitarm/bin/../lib/gcc/arm-none-eabi/7.1.0/../../../../arm-none-eabi/lib/thumb\libg.a(lib_a-memcpy-stub.o)
                0x037f9eb4                memcpy
 .text.memset   0x037f9f40       0xa4 c:/devkitpro/devkitarm/bin/../lib/gcc/arm-none-eabi/7.1.0/../../../../arm-none-eabi/lib/thumb\libg.a(lib_a-memset.o)
                0x037f9f40                memset
 *fill*         0x037f9fe4        0x4 
 .text.memset.__stub
                0x037f9fe8       0xc0 linker stubs
 *(.text.*personality*)
 *(.gnu.warning)
 *(.glue_7t)
 .glue_7t       0x037fa0b0        0x0 linker stubs
 *(.glue_7)
 .glue_7        0x037fa0b0        0x0 linker stubs
 *(.vfp11_veneer)
 .vfp11_veneer  0x037fa0b0        0x0 linker stubs
                0x037fa0b0                . = ALIGN (0x4)

.v4_bx          0x037fa0b0        0x0 load address 0x02382278
 .v4_bx         0x037fa0b0        0x0 linker stubs

.iplt           0x037fa0b0        0x0 load address 0x02382278
 .iplt          0x037fa0b0        0x0 c:/devkitpro/devkitarm/bin/../lib/gcc/arm-none-eabi/7.1.0/../../../../arm-none-eabi/lib/thumb/ds_arm7_crt0.o

.fini           0x037fa0b0        0xc load address 0x02382278
 *(.fini)
 .fini          0x037fa0b0        0x4 c:/devkitpro/devkitarm/bin/../lib/gcc/arm-none-eabi/7.1.0/thumb/crti.o
                0x037fa0b0                _fini
 .fini          0x037fa0b4        0x8 c:/devkitpro/devkitarm/bin/../lib/gcc/arm-none-eabi/7.1.0/thumb/crtn.o

.rodata         0x037fa0bc       0x1c load address 0x02382284
 *(.rodata)
 *all.rodata*(*)
 *(.roda)
 *(.rodata.*)
 .rodata.ydays  0x037fa0bc       0x1a C:/devkitPro/libnds/lib\libnds7.a(clock.o)
 *(.gnu.linkonce.r*)
                0x037fa0d8                . = ALIGN (0x4)
 *fill*         0x037fa0d6        0x2 

.ARM.extab
 *(.ARM.extab* .gnu.linkonce.armextab.*)

.ARM.exidx      0x037fa0d8        0x0 load address 0x023822a0
                0x037fa0d8                __exidx_start = .
 *(.ARM.exidx* .gnu.linkonce.armexidx.*)
                0x037fa0d8                __exidx_end = .

.preinit_array  0x037fa0d8        0x0 load address 0x023822a0
                0x037fa0d8                . = ALIGN (0x4)
                0x037fa0d8                PROVIDE (__preinit_array_start, .)
 *(.preinit_array)
                0x037fa0d8                PROVIDE (__preinit_array_end, .)

.init_array     0x037fa0d8        0x4 load address 0x023822a0
                0x037fa0d8                PROVIDE (__init_array_start, .)
 *(.init_array)
 .init_array    0x037fa0d8        0x4 c:/devkitpro/devkitarm/bin/../lib/gcc/arm-none-eabi/7.1.0/thumb/crtbegin.o
                0x037fa0dc                PROVIDE (__init_array_end, .)

.fini_array     0x037fa0dc        0x4 load address 0x023822a4
                [!provide]                PROVIDE (__fini_array_start, .)
 *(.fini_array)
 .fini_array    0x037fa0dc        0x4 c:/devkitpro/devkitarm/bin/../lib/gcc/arm-none-eabi/7.1.0/thumb/crtbegin.o
                [!provide]                PROVIDE (__fini_array_end, .)

.ctors          0x037fa0e0        0x0 load address 0x023822a8
 *crtbegin.o(.ctors)
 *(EXCLUDE_FILE(*crtend.o) .ctors)
 *(SORT(.ctors.*))
 *(.ctors)
                0x037fa0e0                . = ALIGN (0x4)

.dtors          0x037fa0e0        0x0 load address 0x023822a8
 *crtbegin.o(.dtors)
 *(EXCLUDE_FILE(*crtend.o) .dtors)
 *(SORT(.dtors.*))
 *(.dtors)
                0x037fa0e0                . = ALIGN (0x4)

.eh_frame       0x037fa0e0        0x4 load address 0x023822a8
 *(.eh_frame)
 .eh_frame      0x037fa0e0        0x0 c:/devkitpro/devkitarm/bin/../lib/gcc/arm-none-eabi/7.1.0/thumb/crtbegin.o
 .eh_frame      0x037fa0e0        0x4 c:/devkitpro/devkitarm/bin/../lib/gcc/arm-none-eabi/7.1.0/thumb/crtend.o
                0x037fa0e4                . = ALIGN (0x4)

.rel.dyn        0x037fa0e4        0x0 load address 0x023822ac
 .rel.iplt      0x037fa0e4        0x0 c:/devkitpro/devkitarm/bin/../lib/gcc/arm-none-eabi/7.1.0/../../../../arm-none-eabi/lib/thumb/ds_arm7_crt0.o

.gcc_except_table
                0x037fa0e4        0x0 load address 0x023822ac
 *(.gcc_except_table)
                0x037fa0e4                . = ALIGN (0x4)

.jcr
 *(.jcr)

.got
 *(.got.plt)
 *(.got)

.data           0x037fa0e4       0x14 load address 0x023822ac
                0x037fa0e4                __data_start = ABSOLUTE (.)
 *(.data)
 *(.data.*)
 .data.range    0x037fa0e4        0x1 C:/devkitPro/libnds/lib\libnds7.a(touch.o)
 .data.sleepIsEnabled
                0x037fa0e5        0x1 C:/devkitPro/libnds/lib\libnds7.a(system.o)
                0x037fa0e5                sleepIsEnabled
 .data.fifo_buffer_free
                0x037fa0e6        0x4 C:/devkitPro/libnds/lib\libnds7.a(fifosystem.o)
                0x037fa0e6                fifo_buffer_free
 *fill*         0x037fa0ea        0x2 
 .data.fifo_freewords
                0x037fa0ec        0x4 C:/devkitPro/libnds/lib\libnds7.a(fifosystem.o)
                0x037fa0ec                fifo_freewords
 .data.fifo_receive_queue
                0x037fa0f0        0x4 C:/devkitPro/libnds/lib\libnds7.a(fifosystem.o)
                0x037fa0f0                fifo_receive_queue
 .data.fifo_send_queue
                0x037fa0f4        0x4 C:/devkitPro/libnds/lib\libnds7.a(fifosystem.o)
                0x037fa0f4                fifo_send_queue
 *(.gnu.linkonce.d*)
                0x037fa0f8                . = ALIGN (0x4)
                0x037fa0f8                __data_end = ABSOLUTE (.)

.igot.plt       0x037fa0f8        0x0 load address 0x023822c0
 .igot.plt      0x037fa0f8        0x0 c:/devkitpro/devkitarm/bin/../lib/gcc/arm-none-eabi/7.1.0/../../../../arm-none-eabi/lib/thumb/ds_arm7_crt0.o

.tm_clone_table
                0x037fa0f8        0x0 load address 0x023822c0
 .tm_clone_table
                0x037fa0f8        0x0 c:/devkitpro/devkitarm/bin/../lib/gcc/arm-none-eabi/7.1.0/thumb/crtbegin.o
 .tm_clone_table
                0x037fa0f8        0x0 c:/devkitpro/devkitarm/bin/../lib/gcc/arm-none-eabi/7.1.0/thumb/crtend.o

.bss            0x037fa0f8      0xb48
                0x037fa0f8                __arm7_end__ = .
                0x037fa0f8                __bss_start = ABSOLUTE (.)
                0x037fa0f8                __bss_start__ = ABSOLUTE (.)
 *(.dynbss)
 *(.gnu.linkonce.b*)
 *(.bss*)
 .bss.completed.6484
                0x037fa0f8        0x1 c:/devkitpro/devkitarm/bin/../lib/gcc/arm-none-eabi/7.1.0/thumb/crtbegin.o
 *fill*         0x037fa0f9        0x3 
 .bss.object.6489
                0x037fa0fc       0x18 c:/devkitpro/devkitarm/bin/../lib/gcc/arm-none-eabi/7.1.0/thumb/crtbegin.o
 .bss.penDown.4738
                0x037fa114        0x1 C:/devkitPro/libnds/lib\libnds7.a(input.o)
 *fill*         0x037fa115        0x3 
 .bss.sleepCounter.4739
                0x037fa118        0x4 C:/devkitPro/libnds/lib\libnds7.a(input.o)
 .bss.last_time_touched
                0x037fa11c        0x1 C:/devkitPro/libnds/lib\libnds7.a(touch.o)
 .bss.range_counter_1
                0x037fa11d        0x1 C:/devkitPro/libnds/lib\libnds7.a(touch.o)
 .bss.range_counter_2
                0x037fa11e        0x1 C:/devkitPro/libnds/lib\libnds7.a(touch.o)
 *fill*         0x037fa11f        0x1 
 .bss.xoffset   0x037fa120        0x4 C:/devkitPro/libnds/lib\libnds7.a(touch.o)
 .bss.xscale    0x037fa124        0x4 C:/devkitPro/libnds/lib\libnds7.a(touch.o)
 .bss.yoffset   0x037fa128        0x4 C:/devkitPro/libnds/lib\libnds7.a(touch.o)
 .bss.yscale    0x037fa12c        0x4 C:/devkitPro/libnds/lib\libnds7.a(touch.o)
 .bss.__dsimode
                0x037fa130        0x1 C:/devkitPro/libnds/lib\libnds7.a(system.o)
                0x037fa130                __dsimode
 *fill*         0x037fa131        0x3 
 .bss.processing
                0x037fa134        0x4 C:/devkitPro/libnds/lib\libnds7.a(fifosystem.o)
                0x037fa134                processing
 *(COMMON)
 COMMON         0x037fa138      0xa40 C:/devkitPro/libnds/lib\libnds7.a(fifosystem.o)
                0x037fa138                fifo_datamsg_data
                0x037fa178                fifo_buffer
                0x037fa978                fifo_value32_func
                0x037fa9b8                fifo_address_func
                0x037fa9f8                fifo_value32_data
                0x037faa38                fifo_value32_queue
                0x037faa78                fifo_data_queue
                0x037faab8                fifo_address_data
                0x037faaf8                fifo_datamsg_func
                0x037fab38                fifo_address_queue
 COMMON         0x037fab78       0xc8 C:/devkitPro/libnds/lib\libnds7.a(interrupts.o)
                0x037fab78                irqTable
                0x037fac40                . = ALIGN (0x4)
                0x037fac40                __bss_end__ = ABSOLUTE (.)
                0x037fac40                __end__ = ABSOLUTE (.)

.stab
 *(.stab)

.stabstr
 *(.stabstr)

.stab.excl
 *(.stab.excl)

.stab.exclstr
 *(.stab.exclstr)

.stab.index
 *(.stab.index)

.stab.indexstr
 *(.stab.indexstr)

.comment        0x00000000       0x22
 *(.comment)
 .comment       0x00000000       0x22 c:/devkitpro/devkitarm/bin/../lib/gcc/arm-none-eabi/7.1.0/thumb/crtbegin.o
                                 0x23 (size before relaxing)
 .comment       0x00000022       0x23 main.o
 .comment       0x00000022       0x23 C:/devkitPro/libnds/lib\libnds7.a(input.o)
 .comment       0x00000022       0x23 C:/devkitPro/libnds/lib\libnds7.a(userSettings.o)
 .comment       0x00000022       0x23 C:/devkitPro/libnds/lib\libnds7.a(firmware.o)
 .comment       0x00000022       0x23 C:/devkitPro/libnds/lib\libnds7.a(clock.o)
 .comment       0x00000022       0x23 C:/devkitPro/libnds/lib\libnds7.a(touch.o)
 .comment       0x00000022       0x23 C:/devkitPro/libnds/lib\libnds7.a(system.o)
 .comment       0x00000022       0x23 C:/devkitPro/libnds/lib\libnds7.a(sdmmc.twl.o)
 .comment       0x00000022       0x23 C:/devkitPro/libnds/lib\libnds7.a(i2c.twl.o)
 .comment       0x00000022       0x23 C:/devkitPro/libnds/lib\libnds7.a(fifosystem.o)
 .comment       0x00000022       0x23 C:/devkitPro/libnds/lib\libnds7.a(libnds_exit.arm.o)
 .comment       0x00000022       0x23 C:/devkitPro/libnds/lib\libnds7.a(interrupts.o)
 .comment       0x00000022       0x23 C:/devkitPro/libnds/lib\libnds7.a(card.twl.o)
 .comment       0x00000022       0x23 C:/devkitPro/libnds/lib\libnds7.a(systemShutDown.o)
 .comment       0x00000022       0x23 C:/devkitPro/libnds/lib\libnds7.a(spi.o)
 .comment       0x00000022       0x23 C:/devkitPro/libnds/lib\libnds7.a(codec.twl.o)
 .comment       0x00000022       0x23 c:/devkitpro/devkitarm/bin/../lib/gcc/arm-none-eabi/7.1.0/../../../../arm-none-eabi/lib/thumb\libg.a(lib_a-init.o)
 .comment       0x00000022       0x23 c:/devkitpro/devkitarm/bin/../lib/gcc/arm-none-eabi/7.1.0/../../../../arm-none-eabi/lib/thumb\libg.a(lib_a-memcmp.o)
 .comment       0x00000022       0x23 c:/devkitpro/devkitarm/bin/../lib/gcc/arm-none-eabi/7.1.0/../../../../arm-none-eabi/lib/thumb\libg.a(lib_a-memcpy-stub.o)
 .comment       0x00000022       0x23 c:/devkitpro/devkitarm/bin/../lib/gcc/arm-none-eabi/7.1.0/../../../../arm-none-eabi/lib/thumb\libg.a(lib_a-memset.o)
 .comment       0x00000022       0x23 c:/devkitpro/devkitarm/bin/../lib/gcc/arm-none-eabi/7.1.0/thumb/crtend.o

.ARM.attributes
                0x00000000       0x2b
 .ARM.attributes
                0x00000000       0x16 c:/devkitpro/devkitarm/bin/../lib/gcc/arm-none-eabi/7.1.0/../../../../arm-none-eabi/lib/thumb/ds_arm7_crt0.o
 .ARM.attributes
                0x00000016       0x16 c:/devkitpro/devkitarm/bin/../lib/gcc/arm-none-eabi/7.1.0/thumb/crti.o
 .ARM.attributes
                0x0000002c       0x30 c:/devkitpro/devkitarm/bin/../lib/gcc/arm-none-eabi/7.1.0/thumb/crtbegin.o
 .ARM.attributes
                0x0000005c       0x2c main.o
 .ARM.attributes
                0x00000088       0x2c C:/devkitPro/libnds/lib\libnds7.a(input.o)
 .ARM.attributes
                0x000000b4       0x2c C:/devkitPro/libnds/lib\libnds7.a(userSettings.o)
 .ARM.attributes
                0x000000e0       0x2c C:/devkitPro/libnds/lib\libnds7.a(firmware.o)
 .ARM.attributes
                0x0000010c       0x2c C:/devkitPro/libnds/lib\libnds7.a(clock.o)
 .ARM.attributes
                0x00000138       0x2c C:/devkitPro/libnds/lib\libnds7.a(touch.o)
 .ARM.attributes
                0x00000164       0x2c C:/devkitPro/libnds/lib\libnds7.a(system.o)
 .ARM.attributes
                0x00000190       0x2c C:/devkitPro/libnds/lib\libnds7.a(sdmmc.twl.o)
 .ARM.attributes
                0x000001bc       0x2c C:/devkitPro/libnds/lib\libnds7.a(i2c.twl.o)
 .ARM.attributes
                0x000001e8       0x2c C:/devkitPro/libnds/lib\libnds7.a(fifosystem.o)
 .ARM.attributes
                0x00000214       0x2c C:/devkitPro/libnds/lib\libnds7.a(libnds_exit.arm.o)
 .ARM.attributes
                0x00000240       0x2c C:/devkitPro/libnds/lib\libnds7.a(interrupts.o)
 .ARM.attributes
                0x0000026c       0x20 C:/devkitPro/libnds/lib\libnds7.a(intrwait.o)
 .ARM.attributes
                0x0000028c       0x20 C:/devkitPro/libnds/lib\libnds7.a(swiSoftReset.o)
 .ARM.attributes
                0x000002ac       0x20 C:/devkitPro/libnds/lib\libnds7.a(biosCalls.o)
 .ARM.attributes
                0x000002cc       0x20 C:/devkitPro/libnds/lib\libnds7.a(interruptDispatcher.o)
 .ARM.attributes
                0x000002ec       0x2c C:/devkitPro/libnds/lib\libnds7.a(card.twl.o)
 .ARM.attributes
                0x00000318       0x2c C:/devkitPro/libnds/lib\libnds7.a(systemShutDown.o)
 .ARM.attributes
                0x00000344       0x2c C:/devkitPro/libnds/lib\libnds7.a(spi.o)
 .ARM.attributes
                0x00000370       0x2c C:/devkitPro/libnds/lib\libnds7.a(codec.twl.o)
 .ARM.attributes
                0x0000039c       0x16 c:/devkitpro/devkitarm/bin/../lib/gcc/arm-none-eabi/7.1.0/thumb\libgcc.a(_thumb1_case_uqi.o)
 .ARM.attributes
                0x000003b2       0x18 c:/devkitpro/devkitarm/bin/../lib/gcc/arm-none-eabi/7.1.0/thumb\libgcc.a(_udivsi3.o)
 .ARM.attributes
                0x000003ca       0x18 c:/devkitpro/devkitarm/bin/../lib/gcc/arm-none-eabi/7.1.0/thumb\libgcc.a(_divsi3.o)
 .ARM.attributes
                0x000003e2       0x16 c:/devkitpro/devkitarm/bin/../lib/gcc/arm-none-eabi/7.1.0/thumb\libgcc.a(_dvmd_tls.o)
 .ARM.attributes
                0x000003f8       0x30 c:/devkitpro/devkitarm/bin/../lib/gcc/arm-none-eabi/7.1.0/../../../../arm-none-eabi/lib/thumb\libg.a(lib_a-init.o)
 .ARM.attributes
                0x00000428       0x30 c:/devkitpro/devkitarm/bin/../lib/gcc/arm-none-eabi/7.1.0/../../../../arm-none-eabi/lib/thumb\libg.a(lib_a-memcmp.o)
 .ARM.attributes
                0x00000458       0x30 c:/devkitpro/devkitarm/bin/../lib/gcc/arm-none-eabi/7.1.0/../../../../arm-none-eabi/lib/thumb\libg.a(lib_a-memcpy-stub.o)
 .ARM.attributes
                0x00000488       0x30 c:/devkitpro/devkitarm/bin/../lib/gcc/arm-none-eabi/7.1.0/../../../../arm-none-eabi/lib/thumb\libg.a(lib_a-memset.o)
 .ARM.attributes
                0x000004b8       0x30 c:/devkitpro/devkitarm/bin/../lib/gcc/arm-none-eabi/7.1.0/thumb/crtend.o
 .ARM.attributes
                0x000004e8       0x16 c:/devkitpro/devkitarm/bin/../lib/gcc/arm-none-eabi/7.1.0/thumb/crtn.o

.debug
 *(.debug)

.line
 *(.line)

.debug_srcinfo
 *(.debug_srcinfo)

.debug_sfnames
 *(.debug_sfnames)

.debug_aranges  0x00000000      0x680
 *(.debug_aranges)
 .debug_aranges
                0x00000000       0x28 main.o
 .debug_aranges
                0x00000028       0x20 C:/devkitPro/libnds/lib\libnds7.a(input.o)
 .debug_aranges
                0x00000048       0x20 C:/devkitPro/libnds/lib\libnds7.a(userSettings.o)
 .debug_aranges
                0x00000068       0x40 C:/devkitPro/libnds/lib\libnds7.a(firmware.o)
 .debug_aranges
                0x000000a8       0x70 C:/devkitPro/libnds/lib\libnds7.a(clock.o)
 .debug_aranges
                0x00000118       0x68 C:/devkitPro/libnds/lib\libnds7.a(touch.o)
 .debug_aranges
                0x00000180       0x48 C:/devkitPro/libnds/lib\libnds7.a(system.o)
 .debug_aranges
                0x000001c8       0xb8 C:/devkitPro/libnds/lib\libnds7.a(sdmmc.twl.o)
 .debug_aranges
                0x00000280       0x68 C:/devkitPro/libnds/lib\libnds7.a(i2c.twl.o)
 .debug_aranges
                0x000002e8       0xc0 C:/devkitPro/libnds/lib\libnds7.a(fifosystem.o)
 .debug_aranges
                0x000003a8       0x28 C:/devkitPro/libnds/lib\libnds7.a(libnds_exit.arm.o)
 .debug_aranges
                0x000003d0       0x90 C:/devkitPro/libnds/lib\libnds7.a(interrupts.o)
 .debug_aranges
                0x00000460       0x28 C:/devkitPro/libnds/lib\libnds7.a(intrwait.o)
 .debug_aranges
                0x00000488       0x20 C:/devkitPro/libnds/lib\libnds7.a(swiSoftReset.o)
 .debug_aranges
                0x000004a8       0xd8 C:/devkitPro/libnds/lib\libnds7.a(biosCalls.o)
 .debug_aranges
                0x00000580       0x20 C:/devkitPro/libnds/lib\libnds7.a(interruptDispatcher.o)
 .debug_aranges
                0x000005a0       0x28 C:/devkitPro/libnds/lib\libnds7.a(card.twl.o)
 .debug_aranges
                0x000005c8       0x20 C:/devkitPro/libnds/lib\libnds7.a(systemShutDown.o)
 .debug_aranges
                0x000005e8       0x28 C:/devkitPro/libnds/lib\libnds7.a(spi.o)
 .debug_aranges
                0x00000610       0x70 C:/devkitPro/libnds/lib\libnds7.a(codec.twl.o)

.debug_pubnames
 *(.debug_pubnames)

.debug_info     0x00000000     0xc41b
 *(.debug_info)
 .debug_info    0x00000000      0x398 main.o
 .debug_info    0x00000398      0x5d6 C:/devkitPro/libnds/lib\libnds7.a(input.o)
 .debug_info    0x0000096e      0xdd4 C:/devkitPro/libnds/lib\libnds7.a(userSettings.o)
 .debug_info    0x00001742     0x1248 C:/devkitPro/libnds/lib\libnds7.a(firmware.o)
 .debug_info    0x0000298a     0x1357 C:/devkitPro/libnds/lib\libnds7.a(clock.o)
 .debug_info    0x00003ce1     0x1a6a C:/devkitPro/libnds/lib\libnds7.a(touch.o)
 .debug_info    0x0000574b      0x84d C:/devkitPro/libnds/lib\libnds7.a(system.o)
 .debug_info    0x00005f98     0x1de1 C:/devkitPro/libnds/lib\libnds7.a(sdmmc.twl.o)
 .debug_info    0x00007d79      0x41e C:/devkitPro/libnds/lib\libnds7.a(i2c.twl.o)
 .debug_info    0x00008197     0x1acb C:/devkitPro/libnds/lib\libnds7.a(fifosystem.o)
 .debug_info    0x00009c62      0xb5b C:/devkitPro/libnds/lib\libnds7.a(libnds_exit.arm.o)
 .debug_info    0x0000a7bd      0xb9e C:/devkitPro/libnds/lib\libnds7.a(interrupts.o)
 .debug_info    0x0000b35b       0x8a C:/devkitPro/libnds/lib\libnds7.a(intrwait.o)
 .debug_info    0x0000b3e5       0x94 C:/devkitPro/libnds/lib\libnds7.a(swiSoftReset.o)
 .debug_info    0x0000b479       0x8d C:/devkitPro/libnds/lib\libnds7.a(biosCalls.o)
 .debug_info    0x0000b506       0x9b C:/devkitPro/libnds/lib\libnds7.a(interruptDispatcher.o)
 .debug_info    0x0000b5a1      0x285 C:/devkitPro/libnds/lib\libnds7.a(card.twl.o)
 .debug_info    0x0000b826      0x253 C:/devkitPro/libnds/lib\libnds7.a(systemShutDown.o)
 .debug_info    0x0000ba79      0x2d5 C:/devkitPro/libnds/lib\libnds7.a(spi.o)
 .debug_info    0x0000bd4e      0x6cd C:/devkitPro/libnds/lib\libnds7.a(codec.twl.o)

.debug_abbrev   0x00000000     0x2985
 *(.debug_abbrev)
 .debug_abbrev  0x00000000      0x16e main.o
 .debug_abbrev  0x0000016e      0x1e4 C:/devkitPro/libnds/lib\libnds7.a(input.o)
 .debug_abbrev  0x00000352      0x227 C:/devkitPro/libnds/lib\libnds7.a(userSettings.o)
 .debug_abbrev  0x00000579      0x3a5 C:/devkitPro/libnds/lib\libnds7.a(firmware.o)
 .debug_abbrev  0x0000091e      0x360 C:/devkitPro/libnds/lib\libnds7.a(clock.o)
 .debug_abbrev  0x00000c7e      0x45f C:/devkitPro/libnds/lib\libnds7.a(touch.o)
 .debug_abbrev  0x000010dd      0x210 C:/devkitPro/libnds/lib\libnds7.a(system.o)
 .debug_abbrev  0x000012ed      0x456 C:/devkitPro/libnds/lib\libnds7.a(sdmmc.twl.o)
 .debug_abbrev  0x00001743      0x1dd C:/devkitPro/libnds/lib\libnds7.a(i2c.twl.o)
 .debug_abbrev  0x00001920      0x4f4 C:/devkitPro/libnds/lib\libnds7.a(fifosystem.o)
 .debug_abbrev  0x00001e14      0x248 C:/devkitPro/libnds/lib\libnds7.a(libnds_exit.arm.o)
 .debug_abbrev  0x0000205c      0x31f C:/devkitPro/libnds/lib\libnds7.a(interrupts.o)
 .debug_abbrev  0x0000237b       0x12 C:/devkitPro/libnds/lib\libnds7.a(intrwait.o)
 .debug_abbrev  0x0000238d       0x14 C:/devkitPro/libnds/lib\libnds7.a(swiSoftReset.o)
 .debug_abbrev  0x000023a1       0x12 C:/devkitPro/libnds/lib\libnds7.a(biosCalls.o)
 .debug_abbrev  0x000023b3       0x14 C:/devkitPro/libnds/lib\libnds7.a(interruptDispatcher.o)
 .debug_abbrev  0x000023c7      0x13e C:/devkitPro/libnds/lib\libnds7.a(card.twl.o)
 .debug_abbrev  0x00002505      0x103 C:/devkitPro/libnds/lib\libnds7.a(systemShutDown.o)
 .debug_abbrev  0x00002608      0x1a1 C:/devkitPro/libnds/lib\libnds7.a(spi.o)
 .debug_abbrev  0x000027a9      0x1dc C:/devkitPro/libnds/lib\libnds7.a(codec.twl.o)

.debug_line     0x00000000     0x36da
 *(.debug_line)
 .debug_line    0x00000000      0x1e6 main.o
 .debug_line    0x000001e6      0x1e7 C:/devkitPro/libnds/lib\libnds7.a(input.o)
 .debug_line    0x000003cd      0x22b C:/devkitPro/libnds/lib\libnds7.a(userSettings.o)
 .debug_line    0x000005f8      0x379 C:/devkitPro/libnds/lib\libnds7.a(firmware.o)
 .debug_line    0x00000971      0x417 C:/devkitPro/libnds/lib\libnds7.a(clock.o)
 .debug_line    0x00000d88      0x4c2 C:/devkitPro/libnds/lib\libnds7.a(touch.o)
 .debug_line    0x0000124a      0x2fb C:/devkitPro/libnds/lib\libnds7.a(system.o)
 .debug_line    0x00001545      0x784 C:/devkitPro/libnds/lib\libnds7.a(sdmmc.twl.o)
 .debug_line    0x00001cc9      0x275 C:/devkitPro/libnds/lib\libnds7.a(i2c.twl.o)
 .debug_line    0x00001f3e      0x63b C:/devkitPro/libnds/lib\libnds7.a(fifosystem.o)
 .debug_line    0x00002579      0x250 C:/devkitPro/libnds/lib\libnds7.a(libnds_exit.arm.o)
 .debug_line    0x000027c9      0x3e4 C:/devkitPro/libnds/lib\libnds7.a(interrupts.o)
 .debug_line    0x00002bad       0x8e C:/devkitPro/libnds/lib\libnds7.a(intrwait.o)
 .debug_line    0x00002c3b       0x79 C:/devkitPro/libnds/lib\libnds7.a(swiSoftReset.o)
 .debug_line    0x00002cb4      0x1f9 C:/devkitPro/libnds/lib\libnds7.a(biosCalls.o)
 .debug_line    0x00002ead       0xb6 C:/devkitPro/libnds/lib\libnds7.a(interruptDispatcher.o)
 .debug_line    0x00002f63      0x1cb C:/devkitPro/libnds/lib\libnds7.a(card.twl.o)
 .debug_line    0x0000312e       0xf3 C:/devkitPro/libnds/lib\libnds7.a(systemShutDown.o)
 .debug_line    0x00003221      0x1b4 C:/devkitPro/libnds/lib\libnds7.a(spi.o)
 .debug_line    0x000033d5      0x305 C:/devkitPro/libnds/lib\libnds7.a(codec.twl.o)

.debug_frame    0x00000000      0xd6c
 *(.debug_frame)
 .debug_frame   0x00000000       0x40 main.o
 .debug_frame   0x00000040       0x30 C:/devkitPro/libnds/lib\libnds7.a(input.o)
 .debug_frame   0x00000070       0x34 C:/devkitPro/libnds/lib\libnds7.a(userSettings.o)
 .debug_frame   0x000000a4       0x9c C:/devkitPro/libnds/lib\libnds7.a(firmware.o)
 .debug_frame   0x00000140      0x150 C:/devkitPro/libnds/lib\libnds7.a(clock.o)
 .debug_frame   0x00000290      0x128 C:/devkitPro/libnds/lib\libnds7.a(touch.o)
 .debug_frame   0x000003b8       0xa0 C:/devkitPro/libnds/lib\libnds7.a(system.o)
 .debug_frame   0x00000458      0x20c C:/devkitPro/libnds/lib\libnds7.a(sdmmc.twl.o)
 .debug_frame   0x00000664      0x104 C:/devkitPro/libnds/lib\libnds7.a(i2c.twl.o)
 .debug_frame   0x00000768      0x260 C:/devkitPro/libnds/lib\libnds7.a(fifosystem.o)
 .debug_frame   0x000009c8       0x3c C:/devkitPro/libnds/lib\libnds7.a(libnds_exit.arm.o)
 .debug_frame   0x00000a04      0x170 C:/devkitPro/libnds/lib\libnds7.a(interrupts.o)
 .debug_frame   0x00000b74       0x50 C:/devkitPro/libnds/lib\libnds7.a(card.twl.o)
 .debug_frame   0x00000bc4       0x28 C:/devkitPro/libnds/lib\libnds7.a(systemShutDown.o)
 .debug_frame   0x00000bec       0x48 C:/devkitPro/libnds/lib\libnds7.a(spi.o)
 .debug_frame   0x00000c34      0x138 C:/devkitPro/libnds/lib\libnds7.a(codec.twl.o)

.debug_str      0x00000000     0x28d0
 *(.debug_str)
 .debug_str     0x00000000      0x3b6 main.o
                                0x40f (size before relaxing)
 .debug_str     0x000003b6      0x40b C:/devkitPro/libnds/lib\libnds7.a(input.o)
                                0x530 (size before relaxing)
 .debug_str     0x000007c1      0x606 C:/devkitPro/libnds/lib\libnds7.a(userSettings.o)
                                0x813 (size before relaxing)
 .debug_str     0x00000dc7      0x119 C:/devkitPro/libnds/lib\libnds7.a(firmware.o)
                                0x909 (size before relaxing)
 .debug_str     0x00000ee0      0x215 C:/devkitPro/libnds/lib\libnds7.a(clock.o)
                                0x991 (size before relaxing)
 .debug_str     0x000010f5      0x76a C:/devkitPro/libnds/lib\libnds7.a(touch.o)
                                0xf72 (size before relaxing)
 .debug_str     0x0000185f      0x2e4 C:/devkitPro/libnds/lib\libnds7.a(system.o)
                                0x6fa (size before relaxing)
 .debug_str     0x00001b43      0x357 C:/devkitPro/libnds/lib\libnds7.a(sdmmc.twl.o)
                                0x87f (size before relaxing)
 .debug_str     0x00001e9a       0xb4 C:/devkitPro/libnds/lib\libnds7.a(i2c.twl.o)
                                0x2a7 (size before relaxing)
 .debug_str     0x00001f4e      0x4a4 C:/devkitPro/libnds/lib\libnds7.a(fifosystem.o)
                                0xcaa (size before relaxing)
 .debug_str     0x000023f2      0x11a C:/devkitPro/libnds/lib\libnds7.a(libnds_exit.arm.o)
                                0x736 (size before relaxing)
 .debug_str     0x0000250c      0x208 C:/devkitPro/libnds/lib\libnds7.a(interrupts.o)
                                0x6f7 (size before relaxing)
 .debug_str     0x00002714       0x3d C:/devkitPro/libnds/lib\libnds7.a(card.twl.o)
                                0x24e (size before relaxing)
 .debug_str     0x00002751       0x43 C:/devkitPro/libnds/lib\libnds7.a(systemShutDown.o)
                                0x39c (size before relaxing)
 .debug_str     0x00002794       0x38 C:/devkitPro/libnds/lib\libnds7.a(spi.o)
                                0x324 (size before relaxing)
 .debug_str     0x000027cc      0x104 C:/devkitPro/libnds/lib\libnds7.a(codec.twl.o)
                                0x2f4 (size before relaxing)

.debug_loc      0x00000000     0x42af
 *(.debug_loc)
 .debug_loc     0x00000000       0x15 main.o
 .debug_loc     0x00000015       0x29 C:/devkitPro/libnds/lib\libnds7.a(input.o)
 .debug_loc     0x0000003e       0xbb C:/devkitPro/libnds/lib\libnds7.a(userSettings.o)
 .debug_loc     0x000000f9      0x3bd C:/devkitPro/libnds/lib\libnds7.a(firmware.o)
 .debug_loc     0x000004b6      0x5f1 C:/devkitPro/libnds/lib\libnds7.a(clock.o)
 .debug_loc     0x00000aa7      0x8f3 C:/devkitPro/libnds/lib\libnds7.a(touch.o)
 .debug_loc     0x0000139a      0x2a6 C:/devkitPro/libnds/lib\libnds7.a(system.o)
 .debug_loc     0x00001640     0x13f0 C:/devkitPro/libnds/lib\libnds7.a(sdmmc.twl.o)
 .debug_loc     0x00002a30      0x18a C:/devkitPro/libnds/lib\libnds7.a(i2c.twl.o)
 .debug_loc     0x00002bba      0xe30 C:/devkitPro/libnds/lib\libnds7.a(fifosystem.o)
 .debug_loc     0x000039ea       0x3f C:/devkitPro/libnds/lib\libnds7.a(libnds_exit.arm.o)
 .debug_loc     0x00003a29      0x379 C:/devkitPro/libnds/lib\libnds7.a(interrupts.o)
 .debug_loc     0x00003da2       0x4c C:/devkitPro/libnds/lib\libnds7.a(card.twl.o)
 .debug_loc     0x00003dee       0xdb C:/devkitPro/libnds/lib\libnds7.a(spi.o)
 .debug_loc     0x00003ec9      0x3e6 C:/devkitPro/libnds/lib\libnds7.a(codec.twl.o)

.debug_macinfo
 *(.debug_macinfo)

.debug_weaknames
 *(.debug_weaknames)

.debug_funcnames
 *(.debug_funcnames)

.debug_typenames
 *(.debug_typenames)

.debug_varnames
 *(.debug_varnames)
LOAD c:/devkitpro/devkitarm/bin/../lib/gcc/arm-none-eabi/7.1.0/../../../../arm-none-eabi/lib/thumb/ds_arm7_crt0.o
LOAD c:/devkitpro/devkitarm/bin/../lib/gcc/arm-none-eabi/7.1.0/thumb/crti.o
LOAD c:/devkitpro/devkitarm/bin/../lib/gcc/arm-none-eabi/7.1.0/thumb/crtbegin.o
LOAD main.o
LOAD C:/devkitPro/libnds/lib\libmm7.a
LOAD C:/devkitPro/libnds/lib\libnds7.a
START GROUP
LOAD c:/devkitpro/devkitarm/bin/../lib/gcc/arm-none-eabi/7.1.0/thumb\libgcc.a
LOAD c:/devkitpro/devkitarm/bin/../lib/gcc/arm-none-eabi/7.1.0/../../../../arm-none-eabi/lib/thumb\libg.a
LOAD c:/devkitpro/devkitarm/bin/../lib/gcc/arm-none-eabi/7.1.0/../../../../arm-none-eabi/lib/thumb\libc.a
LOAD c:/devkitpro/devkitarm/bin/../lib/gcc/arm-none-eabi/7.1.0/../../../../arm-none-eabi/lib/thumb\libsysbase.a
END GROUP
LOAD c:/devkitpro/devkitarm/bin/../lib/gcc/arm-none-eabi/7.1.0/thumb/crtend.o
LOAD c:/devkitpro/devkitarm/bin/../lib/gcc/arm-none-eabi/7.1.0/thumb/crtn.o
OUTPUT(C:/Users/Spenser/Documents/GitHub/ApacheThunder/GodMode9Nrio/gm9i_bootstrap/arm7/GM9N_Bootstrap.elf elf32-littlearm)

.debug_ranges   0x00000000      0xb50
 .debug_ranges  0x00000000       0x18 main.o
 .debug_ranges  0x00000018       0x10 C:/devkitPro/libnds/lib\libnds7.a(input.o)
 .debug_ranges  0x00000028       0x10 C:/devkitPro/libnds/lib\libnds7.a(userSettings.o)
 .debug_ranges  0x00000038       0xc0 C:/devkitPro/libnds/lib\libnds7.a(firmware.o)
 .debug_ranges  0x000000f8       0x78 C:/devkitPro/libnds/lib\libnds7.a(clock.o)
 .debug_ranges  0x00000170       0x88 C:/devkitPro/libnds/lib\libnds7.a(touch.o)
 .debug_ranges  0x000001f8       0x68 C:/devkitPro/libnds/lib\libnds7.a(system.o)
 .debug_ranges  0x00000260      0x2f0 C:/devkitPro/libnds/lib\libnds7.a(sdmmc.twl.o)
 .debug_ranges  0x00000550       0x58 C:/devkitPro/libnds/lib\libnds7.a(i2c.twl.o)
 .debug_ranges  0x000005a8      0x248 C:/devkitPro/libnds/lib\libnds7.a(fifosystem.o)
 .debug_ranges  0x000007f0       0x18 C:/devkitPro/libnds/lib\libnds7.a(libnds_exit.arm.o)
 .debug_ranges  0x00000808      0x158 C:/devkitPro/libnds/lib\libnds7.a(interrupts.o)
 .debug_ranges  0x00000960       0x20 C:/devkitPro/libnds/lib\libnds7.a(intrwait.o)
 .debug_ranges  0x00000980       0xd0 C:/devkitPro/libnds/lib\libnds7.a(biosCalls.o)
 .debug_ranges  0x00000a50       0x48 C:/devkitPro/libnds/lib\libnds7.a(card.twl.o)
 .debug_ranges  0x00000a98       0x10 C:/devkitPro/libnds/lib\libnds7.a(systemShutDown.o)
 .debug_ranges  0x00000aa8       0x48 C:/devkitPro/libnds/lib\libnds7.a(spi.o)
 .debug_ranges  0x00000af0       0x60 C:/devkitPro/libnds/lib\libnds7.a(codec.twl.o)
